; Function Attrs: mustprogress nofree nounwind uwtable
define noundef zeroext i1 @_ZN4base15DirectoryExistsERKNS_8FilePathE(ptr noundef nonnull readonly align 8 captures(none) dereferenceable(32) %0) local_unnamed_addr #6 {
  %2 = alloca %struct.stat64, align 8
  call void @llvm.lifetime.start.p0(i64 144, ptr nonnull %2) #24
  %3 = load ptr, ptr %0, align 8, !tbaa !3
  %4 = call noundef i32 @stat64(ptr noundef readonly %3, ptr noundef nonnull %2) #24
  %5 = icmp eq i32 %4, 0
  %6 = getelementptr inbounds nuw i8, ptr %2, i64 24
  %7 = load i32, ptr %6, align 8
  %8 = and i32 %7, 61440
  %9 = icmp eq i32 %8, 16384
  %.0 = select i1 %5, i1 %9, i1 false
  call void @llvm.lifetime.end.p0(i64 144, ptr nonnull %2) #24
  ret i1 %.0
}